; Function Attrs: nofree nounwind uwtable
define noalias noundef ptr @Gia_ManCreateMuxRefs(ptr noundef readonly captures(none) %0) local_unnamed_addr #15 {
  %2 = alloca ptr, align 8
  %3 = alloca ptr, align 8
  %4 = getelementptr i8, ptr %0, i64 24
  %.val = load i32, ptr %4, align 8
  %5 = sext i32 %.val to i64
  %6 = tail call noalias ptr @calloc(i64 noundef %5, i64 noundef 4) #38
  %7 = getelementptr i8, ptr %0, i64 32
  %8 = icmp sgt i32 %.val, 0
  br i1 %8, label %.lr.ph, label %.critedge

.lr.ph:                                           ; preds = %1, %25
  %indvars.iv = phi i64 [ %indvars.iv.next, %25 ], [ 0, %1 ]
  %.val15 = load ptr, ptr %7, align 8
  %9 = getelementptr inbounds nuw %struct.Gia_Obj_t_, ptr %.val15, i64 %indvars.iv
  %.not = icmp eq ptr %.val15, null
  br i1 %.not, label %.critedge, label %10

10:                                               ; preds = %.lr.ph
  %11 = call i32 @Gia_ObjRecognizeExor(ptr noundef nonnull %9, ptr noundef nonnull %2, ptr noundef nonnull %3)
  %.not13 = icmp eq i32 %11, 0
  br i1 %.not13, label %12, label %25

12:                                               ; preds = %10
  %13 = call i32 @Gia_ObjIsMuxType(ptr noundef nonnull %9)
  %.not14 = icmp eq i32 %13, 0
  br i1 %.not14, label %25, label %14

14:                                               ; preds = %12
  %15 = call ptr @Gia_ObjRecognizeMux(ptr noundef nonnull %9, ptr noundef nonnull %2, ptr noundef nonnull %3)
  %16 = ptrtoint ptr %15 to i64
  %17 = and i64 %16, -2
  %.val16 = load ptr, ptr %7, align 8
  %18 = ptrtoint ptr %.val16 to i64
  %19 = sub i64 %17, %18
  %20 = sdiv exact i64 %19, 12
  %sext = shl i64 %20, 32
  %21 = ashr exact i64 %sext, 30
  %22 = getelementptr inbounds i8, ptr %6, i64 %21
  %23 = load i32, ptr %22, align 4
  %24 = add nsw i32 %23, 1
  store i32 %24, ptr %22, align 4
  br label %25

25:                                               ; preds = %12, %10, %14
  %indvars.iv.next = add nuw nsw i64 %indvars.iv, 1
  %26 = load i32, ptr %4, align 8
  %27 = sext i32 %26 to i64
  %28 = icmp slt i64 %indvars.iv.next, %27
  br i1 %28, label %.lr.ph, label %.critedge, !llvm.loop !34

.critedge:                                        ; preds = %.lr.ph, %25, %1
  ret ptr %6
}